Certificate:
    Data:
        Version: 3 (0x2)
        Serial Number: 1 (0x1)
        Signature Algorithm: sha256WithRSAEncryption
        Issuer: CN=devcert
        Validity
            Not Before: Apr  4 02:04:37 2022 GMT
            Not After : Jul  7 02:04:37 2024 GMT
        Subject: CN=localhost
        Subject Public Key Info:
            Public Key Algorithm: rsaEncryption
                RSA Public-Key: (2048 bit)
                Modulus:
                    00:ce:89:89:e6:74:aa:e5:a1:c9:8b:29:34:92:60:
                    0d:ed:d4:86:9a:24:63:cb:60:5b:24:ba:3e:e5:e8:
                    75:47:d5:6c:d3:89:e4:8f:6c:2f:28:47:db:78:90:
                    3f:ad:3d:b3:ea:b7:79:58:17:15:1b:3d:81:54:a4:
                    f2:71:f3:6b:6e:be:a9:6b:74:78:c9:ba:5b:7a:fd:
                    07:9b:5e:1e:2d:2b:f6:e2:f1:06:40:4c:2f:af:2d:
                    13:61:11:94:11:bf:3f:22:f2:af:16:af:05:48:3b:
                    05:35:2c:af:6e:4e:1a:0f:c6:30:8f:1f:cf:53:47:
                    14:8d:63:c3:64:85:7e:f2:fd:2b:7a:be:4b:93:a2:
                    5c:fb:a4:5d:0d:7d:4c:0b:df:23:55:aa:b2:f8:a0:
                    bf:e9:31:14:cd:49:8b:7d:98:b2:46:e3:36:7b:d9:
                    72:12:4d:27:ef:52:4a:b2:cc:2a:03:ad:58:5c:8c:
                    1a:cd:b0:ac:93:fc:5b:63:1b:98:e5:ad:95:a5:7e:
                    39:17:e4:b6:1f:b4:9e:90:31:aa:fd:a5:5d:07:80:
                    3a:80:af:dd:b0:0d:84:78:11:28:68:6d:84:ab:f5:
                    ed:92:ee:5d:f3:03:9f:d3:a3:b5:a3:35:84:cf:8d:
                    4c:41:02:34:88:69:f5:5b:74:ee:43:87:9b:55:86:
                    20:fd
                Exponent: 65537 (0x10001)
        X509v3 extensions:
            X509v3 Basic Constraints: critical
                CA:FALSE
            X509v3 Subject Key Identifier: 
                E4:CA:4F:0F:3B:D9:69:2A:7E:2D:EE:76:9D:7B:EC:FC:75:BC:42:45
            X509v3 Authority Key Identifier: 
                keyid:11:3F:4A:F4:B4:79:81:42:92:67:CF:DE:6B:D1:6F:B1:95:52:01:BA
                DirName:/CN=devcert
                serial:59:7B:36:BB:5A:CA:B0:1B:0B:62:51:44:E1:66:62:B4:95:A6:DC:7E

            X509v3 Key Usage: critical
                Digital Signature, Key Encipherment
            X509v3 Extended Key Usage: 
                TLS Web Server Authentication
            X509v3 Subject Alternative Name: 
                DNS:localhost, DNS:*.localhost
    Signature Algorithm: sha256WithRSAEncryption
         86:7b:97:fe:58:8d:be:ab:96:6c:d3:59:7d:68:17:78:b4:ef:
         f8:c1:a1:dc:d5:99:09:55:2d:1d:a5:b7:40:f1:42:c3:87:68:
         ea:75:c6:84:40:78:7c:dc:0f:12:f3:1f:e3:b0:ac:31:ae:e4:
         b1:0f:84:25:3f:bb:49:6f:67:71:0a:56:c7:85:67:2e:53:f8:
         c1:c8:aa:01:c6:3b:8d:19:31:ad:46:4b:ff:a8:61:ef:d7:3b:
         4c:07:38:a3:2f:20:24:c8:59:dc:36:87:db:18:a1:48:c2:e8:
         0d:29:a0:b6:1c:21:8f:05:e4:c9:6c:04:6c:b2:5e:c1:a2:85:
         fe:0a:51:37:4c:d1:ac:cb:ec:d2:fe:a5:19:b0:17:e1:f2:a4:
         e1:18:c4:2a:10:cb:6b:71:55:43:00:2c:b6:ab:85:ea:cd:23:
         37:30:36:c7:ff:ae:10:d0:d2:cd:a2:68:f1:68:11:fa:b4:6c:
         3e:43:2e:ba:87:c9:ce:53:86:fd:54:07:47:ba:fa:42:26:08:
         34:1b:9b:c2:82:5b:38:a7:8e:61:f7:c5:e1:30:cf:d5:e1:ce:
         c0:b7:16:65:4e:db:bc:6c:62:48:e7:37:d2:93:8c:e5:b8:0e:
         a1:96:6d:65:02:bd:5e:13:e9:eb:d5:47:af:29:e9:cd:67:c9:
         0f:da:7c:03
-----BEGIN CERTIFICATE-----
MIIDaTCCAlGgAwIBAgIBATANBgkqhkiG9w0BAQsFADASMRAwDgYDVQQDDAdkZXZj
ZXJ0MB4XDTIyMDQwNDAyMDQzN1oXDTI0MDcwNzAyMDQzN1owFDESMBAGA1UEAwwJ
bG9jYWxob3N0MIIBIjANBgkqhkiG9w0BAQEFAAOCAQ8AMIIBCgKCAQEAzomJ5nSq
5aHJiyk0kmAN7dSGmiRjy2BbJLo+5eh1R9Vs04nkj2wvKEfbeJA/rT2z6rd5WBcV
Gz2BVKTycfNrbr6pa3R4ybpbev0Hm14eLSv24vEGQEwvry0TYRGUEb8/IvKvFq8F
SDsFNSyvbk4aD8Ywjx/PU0cUjWPDZIV+8v0rer5Lk6Jc+6RdDX1MC98jVaqy+KC/
6TEUzUmLfZiyRuM2e9lyEk0n71JKsswqA61YXIwazbCsk/xbYxuY5a2VpX45F+S2
H7SekDGq/aVdB4A6gK/dsA2EeBEoaG2Eq/Xtku5d8wOf06O1ozWEz41MQQI0iGn1
W3TuQ4ebVYYg/QIDAQABo4HHMIHEMAwGA1UdEwEB/wQCMAAwHQYDVR0OBBYEFOTK
Tw872Wkqfi3udp177Px1vEJFME0GA1UdIwRGMESAFBE/SvS0eYFCkmfP3mvRb7GV
UgG6oRakFDASMRAwDgYDVQQDDAdkZXZjZXJ0ghRZeza7WsqwGwtiUUThZmK0labc
fjAOBgNVHQ8BAf8EBAMCBaAwEwYDVR0lBAwwCgYIKwYBBQUHAwEwIQYDVR0RBBow
GIIJbG9jYWxob3N0ggsqLmxvY2FsaG9zdDANBgkqhkiG9w0BAQsFAAOCAQEAhnuX
/liNvquWbNNZfWgXeLTv+MGh3NWZCVUtHaW3QPFCw4do6nXGhEB4fNwPEvMf47Cs
Ma7ksQ+EJT+7SW9ncQpWx4VnLlP4wciqAcY7jRkxrUZL/6hh79c7TAc4oy8gJMhZ
3DaH2xihSMLoDSmgthwhjwXkyWwEbLJewaKF/gpRN0zRrMvs0v6lGbAX4fKk4RjE
KhDLa3FVQwAstquF6s0jNzA2x/+uENDSzaJo8WgR+rRsPkMuuofJzlOG/VQHR7r6
QiYINBubwoJbOKeOYffF4TDP1eHOwLcWZU7bvGxiSOc30pOM5bgOoZZtZQK9XhPp
69VHrynpzWfJD9p8Aw==
-----END CERTIFICATE-----
